(dp1
S'bttb'
p2
(lp3
F12.241159915924072
aF3.1773750782012939
aF1.0089571475982666
aF0.14032983779907227
aF0.33670806884765625
aF0.44214797019958496
aF0.50600695610046387
aF0.19723892211914062
aF0.20693302154541016
aF0.38473105430603027
aF0.11551904678344727
asS'fast_eql'
p4
(lp5
F0.12411594390869141
aF0.3237769603729248
aF0.10456395149230957
aF0.32409501075744629
aF0.72579193115234375
aF1.4221899509429932
aF2.5570859909057617
aF4.2890989780426025
aF6.8639011383056641
aF10.399639844894409
aF343.11196112632751
asS'N'
(lp6
I100
aI400
aI900
aI1600
aI2500
aI3600
aI4900
aI6400
aI8100
aI10000
aI22500
as.