(dp1
S'bttb'
p2
(lp3
F0.20300793647766113
aF0.24026393890380859
aF0.063206911087036133
aF0.1974949836730957
aF0.43919587135314941
aF0.69514012336730957
aF1.0400440692901611
aF4.287153959274292
aF9.3537881374359131
aF16.693243980407715
aF41.23505711555481
aF79.569927930831909
aF518.68846797943115
asS'N'
(lp4
I100
aI2500
aI10000
aI40000
aI90000
aI160000
aI250000
aI1000000
aI2250000
aI4000000
aI9000000
aI16000000
aI25000000
as.